target datalayout = "e-m:e-p270:32:32-p271:32:32-p272:64:64-i64:64-i128:128-f80:128-n8:16:32:64-S128"
target triple = "x86_64-pc-linux-gnu"

%struct.AVFrameSideData = type { i32, ptr, i64, ptr, ptr }

@.str = private unnamed_addr constant [55 x i8] c"Cannot store %zu byte ICC profile: too large for JPEG\0A\00", align 1

; Function Attrs: nounwind uwtable
define i32 @ff_mjpeg_add_icc_profile_size(ptr noundef %0, ptr noundef %1, ptr noundef %2) #0 {
  %4 = alloca i32, align 4
  %5 = alloca ptr, align 8
  %6 = alloca ptr, align 8
  %7 = alloca ptr, align 8
  %8 = alloca ptr, align 8
  %9 = alloca i64, align 8
  %10 = alloca i32, align 4
  %11 = alloca i32, align 4
  store ptr %0, ptr %5, align 8, !tbaa !4
  store ptr %1, ptr %6, align 8, !tbaa !9
  store ptr %2, ptr %7, align 8, !tbaa !11
  call void @llvm.lifetime.start.p0(i64 8, ptr %8) #8
  call void @llvm.lifetime.start.p0(i64 8, ptr %9) #8
  call void @llvm.lifetime.start.p0(i64 4, ptr %10) #8
  %12 = load ptr, ptr %6, align 8, !tbaa !9
  %13 = call ptr @av_frame_get_side_data(ptr noundef %12, i32 noundef 15)
  store ptr %13, ptr %8, align 8, !tbaa !13
  %14 = load ptr, ptr %8, align 8, !tbaa !13
  %15 = icmp ne ptr %14, null
  br i1 %15, label %16, label %21

16:                                               ; preds = %3
  %17 = load ptr, ptr %8, align 8, !tbaa !13
  %18 = getelementptr inbounds nuw %struct.AVFrameSideData, ptr %17, i32 0, i32 2
  %19 = load i64, ptr %18, align 8, !tbaa !15
  %20 = icmp ne i64 %19, 0
  br i1 %20, label %22, label %21

21:                                               ; preds = %16, %3
  store i32 0, ptr %4, align 4
  store i32 1, ptr %11, align 4
  br label %54

22:                                               ; preds = %16
  %23 = load ptr, ptr %8, align 8, !tbaa !13
  %24 = getelementptr inbounds nuw %struct.AVFrameSideData, ptr %23, i32 0, i32 2
  %25 = load i64, ptr %24, align 8, !tbaa !15
  %26 = icmp ugt i64 %25, 16707345
  br i1 %26, label %27, label %32

27:                                               ; preds = %22
  %28 = load ptr, ptr %5, align 8, !tbaa !4
  %29 = load ptr, ptr %8, align 8, !tbaa !13
  %30 = getelementptr inbounds nuw %struct.AVFrameSideData, ptr %29, i32 0, i32 2
  %31 = load i64, ptr %30, align 8, !tbaa !15
  call void (ptr, i32, ptr, ...) @av_log(ptr noundef %28, i32 noundef 16, ptr noundef @.str, i64 noundef %31)
  store i32 -1094995529, ptr %4, align 4
  store i32 1, ptr %11, align 4
  br label %54

32:                                               ; preds = %22
  %33 = load ptr, ptr %8, align 8, !tbaa !13
  %34 = getelementptr inbounds nuw %struct.AVFrameSideData, ptr %33, i32 0, i32 2
  %35 = load i64, ptr %34, align 8, !tbaa !15
  %36 = add i64 %35, 65519
  %37 = sub i64 %36, 1
  %38 = udiv i64 %37, 65519
  %39 = trunc i64 %38 to i32
  store i32 %39, ptr %10, align 4, !tbaa !22
  %40 = load ptr, ptr %7, align 8, !tbaa !11
  %41 = load i64, ptr %40, align 8, !tbaa !23
  %42 = load i32, ptr %10, align 4, !tbaa !22
  %43 = mul nsw i32 %42, 65537
  %44 = sext i32 %43 to i64
  %45 = add i64 %41, %44
  store i64 %45, ptr %9, align 8, !tbaa !23
  %46 = load i64, ptr %9, align 8, !tbaa !23
  %47 = load ptr, ptr %7, align 8, !tbaa !11
  %48 = load i64, ptr %47, align 8, !tbaa !23
  %49 = icmp ult i64 %46, %48
  br i1 %49, label %50, label %51

50:                                               ; preds = %32
  store i32 -1094995529, ptr %4, align 4
  store i32 1, ptr %11, align 4
  br label %54

51:                                               ; preds = %32
  %52 = load i64, ptr %9, align 8, !tbaa !23
  %53 = load ptr, ptr %7, align 8, !tbaa !11
  store i64 %52, ptr %53, align 8, !tbaa !23
  store i32 0, ptr %4, align 4
  store i32 1, ptr %11, align 4
  br label %54

54:                                               ; preds = %51, %50, %27, %21
  call void @llvm.lifetime.end.p0(i64 4, ptr %10) #8
  call void @llvm.lifetime.end.p0(i64 8, ptr %9) #8
  call void @llvm.lifetime.end.p0(i64 8, ptr %8) #8
  %55 = load i32, ptr %4, align 4
  ret i32 %55
}