; Function Attrs: nounwind uwtable
define range(i32 -1094995529, 1) i32 @ff_mjpeg_add_icc_profile_size(ptr noundef %0, ptr noundef %1, ptr noundef captures(none) %2) local_unnamed_addr #0 {
  %4 = tail call ptr @av_frame_get_side_data(ptr noundef %1, i32 noundef 15) #8
  %.not = icmp eq ptr %4, null
  br i1 %.not, label %19, label %5

5:                                                ; preds = %3
  %6 = getelementptr inbounds nuw i8, ptr %4, i64 16
  %7 = load i64, ptr %6, align 8, !tbaa !4
  %.not16 = icmp eq i64 %7, 0
  br i1 %.not16, label %19, label %8

8:                                                ; preds = %5
  %9 = icmp ugt i64 %7, 16707345
  br i1 %9, label %10, label %11

10:                                               ; preds = %8
  tail call void (ptr, i32, ptr, ...) @av_log(ptr noundef %0, i32 noundef 16, ptr noundef nonnull @.str, i64 noundef %7) #8
  br label %19

11:                                               ; preds = %8
  %12 = trunc nuw nsw i64 %7 to i32
  %.lhs.trunc = add nuw nsw i32 %12, 65518
  %13 = udiv i32 %.lhs.trunc, 65519
  %14 = load i64, ptr %2, align 8, !tbaa !14
  %narrow = mul nuw nsw i32 %13, 65537
  %15 = zext nneg i32 %narrow to i64
  %16 = add i64 %14, %15
  %17 = icmp ult i64 %16, %14
  br i1 %17, label %19, label %18

18:                                               ; preds = %11
  store i64 %16, ptr %2, align 8, !tbaa !14
  br label %19

19:                                               ; preds = %11, %3, %5, %18, %10
  %.0 = phi i32 [ -1094995529, %10 ], [ 0, %18 ], [ 0, %5 ], [ 0, %3 ], [ -1094995529, %11 ]
  ret i32 %.0
}